target datalayout = "e-m:e-p270:32:32-p271:32:32-p272:64:64-i64:64-i128:128-f80:128-n8:16:32:64-S128"
target triple = "x86_64-unknown-linux-gnu"

%"class.cvc5::internal::Rational" = type { %class.__gmp_expr }
%class.__gmp_expr = type { [1 x %struct.__mpq_struct] }
%struct.__mpq_struct = type { %struct.__mpz_struct, %struct.__mpz_struct }
%struct.__mpz_struct = type { i32, i32, ptr }
%"class.cvc5::internal::theory::arith::linear::UpdateInfo" = type <{ i32, i32, %"class.std::optional", i8, [3 x i8], %"class.std::optional.47", %"class.std::optional.47", [4 x i8], %"class.std::optional", %"class.std::optional.55", ptr, i32, [4 x i8] }>
%"class.std::optional.47" = type { %"struct.std::_Optional_base.48" }
%"struct.std::_Optional_base.48" = type { %"struct.std::_Optional_payload.50" }
%"struct.std::_Optional_payload.50" = type { %"struct.std::_Optional_payload_base.base.52", [3 x i8] }
%"struct.std::_Optional_payload_base.base.52" = type <{ %"union.std::_Optional_payload_base<int>::_Storage", i8 }>
%"union.std::_Optional_payload_base<int>::_Storage" = type { i32 }
%"class.std::optional" = type { %"struct.std::_Optional_base" }
%"struct.std::_Optional_base" = type { %"struct.std::_Optional_payload" }
%"struct.std::_Optional_payload" = type { %"struct.std::_Optional_payload.base", [7 x i8] }
%"struct.std::_Optional_payload.base" = type { %"struct.std::_Optional_payload_base.base" }
%"struct.std::_Optional_payload_base.base" = type <{ %"union.std::_Optional_payload_base<cvc5::internal::DeltaRational>::_Storage", i8 }>
%"union.std::_Optional_payload_base<cvc5::internal::DeltaRational>::_Storage" = type { %"class.cvc5::internal::DeltaRational" }
%"class.cvc5::internal::DeltaRational" = type { %"class.cvc5::internal::Rational", %"class.cvc5::internal::Rational" }
%"class.std::optional.55" = type { %"struct.std::_Optional_base.56" }
%"struct.std::_Optional_base.56" = type { %"struct.std::_Optional_payload.58" }
%"struct.std::_Optional_payload.58" = type { %"struct.std::_Optional_payload_base.base.60", [7 x i8] }
%"struct.std::_Optional_payload_base.base.60" = type <{ %"union.std::_Optional_payload_base<const cvc5::internal::Rational *>::_Storage", i8 }>
%"union.std::_Optional_payload_base<const cvc5::internal::Rational *>::_Storage" = type { ptr }
%"struct.std::_Optional_payload_base.51" = type <{ %"union.std::_Optional_payload_base<int>::_Storage", i8, [3 x i8] }>

; Function Attrs: mustprogress nounwind uwtable
define linkonce_odr hidden noundef nonnull align 4 dereferenceable(4) ptr @_ZNKSt22_Optional_payload_baseIiE6_M_getEv(ptr noundef nonnull align 4 dereferenceable(5) %this) #6 comdat align 2 {
entry:
  %this.addr = alloca ptr, align 8
  store ptr %this, ptr %this.addr, align 8
  %this1 = load ptr, ptr %this.addr, align 8
  %_M_payload = getelementptr inbounds %"struct.std::_Optional_payload_base.51", ptr %this1, i32 0, i32 0
  ret ptr %_M_payload
}

; Function Attrs: mustprogress nounwind uwtable
define linkonce_odr hidden noundef nonnull align 4 dereferenceable(4) ptr @_ZNKSt19_Optional_base_implIiSt14_Optional_baseIiLb1ELb1EEE6_M_getEv(ptr noundef nonnull align 1 dereferenceable(1) %this) #6 comdat align 2 {
entry:
  %this.addr = alloca ptr, align 8
  store ptr %this, ptr %this.addr, align 8
  %this1 = load ptr, ptr %this.addr, align 8
  br label %do.body

do.body:                                          ; preds = %entry
  br label %do.cond

do.cond:                                          ; preds = %do.body
  br label %do.end

do.end:                                           ; preds = %do.cond
  %_M_payload = getelementptr inbounds %"struct.std::_Optional_base.48", ptr %this1, i32 0, i32 0
  %call = call noundef nonnull align 4 dereferenceable(4) ptr @_ZNKSt22_Optional_payload_baseIiE6_M_getEv(ptr noundef nonnull align 4 dereferenceable(5) %_M_payload) #3
  ret ptr %call
}

; Function Attrs: mustprogress nounwind uwtable
define linkonce_odr hidden noundef zeroext i1 @_ZNKSt19_Optional_base_implIiSt14_Optional_baseIiLb1ELb1EEE13_M_is_engagedEv(ptr noundef nonnull align 1 dereferenceable(1) %this) #6 comdat align 2 {
entry:
  %this.addr = alloca ptr, align 8
  store ptr %this, ptr %this.addr, align 8
  %this1 = load ptr, ptr %this.addr, align 8
  %_M_payload = getelementptr inbounds %"struct.std::_Optional_base.48", ptr %this1, i32 0, i32 0
  %_M_engaged = getelementptr inbounds %"struct.std::_Optional_payload_base.51", ptr %_M_payload, i32 0, i32 1
  %0 = load i8, ptr %_M_engaged, align 4
  %tobool = trunc i8 %0 to i1
  ret i1 %tobool
}

; Function Attrs: mustprogress uwtable
define linkonce_odr hidden noundef nonnull align 4 dereferenceable(4) ptr @_ZNKRSt8optionalIiE5valueEv(ptr noundef nonnull align 4 dereferenceable(8) %this) #4 comdat align 2 {
entry:
  %this.addr = alloca ptr, align 8
  store ptr %this, ptr %this.addr, align 8
  %this1 = load ptr, ptr %this.addr, align 8
  %call = call noundef zeroext i1 @_ZNKSt19_Optional_base_implIiSt14_Optional_baseIiLb1ELb1EEE13_M_is_engagedEv(ptr noundef nonnull align 1 dereferenceable(1) %this1) #3
  br i1 %call, label %if.then, label %if.end

if.then:                                          ; preds = %entry
  %call2 = call noundef nonnull align 4 dereferenceable(4) ptr @_ZNKSt19_Optional_base_implIiSt14_Optional_baseIiLb1ELb1EEE6_M_getEv(ptr noundef nonnull align 1 dereferenceable(1) %this1) #3
  ret ptr %call2

if.end:                                           ; preds = %entry
  call void @_ZSt27__throw_bad_optional_accessv() #16
  unreachable
}

; Function Attrs: mustprogress uwtable
define linkonce_odr hidden noundef i32 @_ZNK4cvc58internal6theory5arith6linear10UpdateInfo14focusDirectionEv(ptr noundef nonnull align 8 dereferenceable(204) %this) #4 comdat align 2 {
entry:
  %this.addr = alloca ptr, align 8
  store ptr %this, ptr %this.addr, align 8
  %this1 = load ptr, ptr %this.addr, align 8
  %d_focusDirection = getelementptr inbounds %"class.cvc5::internal::theory::arith::linear::UpdateInfo", ptr %this1, i32 0, i32 6
  %call = call noundef nonnull align 4 dereferenceable(4) ptr @_ZNKRSt8optionalIiE5valueEv(ptr noundef nonnull align 4 dereferenceable(8) %d_focusDirection)
  %0 = load i32, ptr %call, align 4
  ret i32 %0
}

; Function Attrs: mustprogress uwtable
define linkonce_odr hidden noundef i32 @_ZNK4cvc58internal6theory5arith6linear10UpdateInfo12errorsChangeEv(ptr noundef nonnull align 8 dereferenceable(204) %this) #4 comdat align 2 {
entry:
  %this.addr = alloca ptr, align 8
  store ptr %this, ptr %this.addr, align 8
  %this1 = load ptr, ptr %this.addr, align 8
  %d_errorsChange = getelementptr inbounds %"class.cvc5::internal::theory::arith::linear::UpdateInfo", ptr %this1, i32 0, i32 5
  %call = call noundef nonnull align 4 dereferenceable(4) ptr @_ZNKRSt8optionalIiE5valueEv(ptr noundef nonnull align 4 dereferenceable(8) %d_errorsChange)
  %0 = load i32, ptr %call, align 4
  ret i32 %0
}

; Function Attrs: mustprogress nounwind uwtable
define linkonce_odr hidden noundef zeroext i1 @_ZNK4cvc58internal6theory5arith6linear10UpdateInfo13foundConflictEv(ptr noundef nonnull align 8 dereferenceable(204) %this) #6 comdat align 2 {
entry:
  %this.addr = alloca ptr, align 8
  store ptr %this, ptr %this.addr, align 8
  %this1 = load ptr, ptr %this.addr, align 8
  %d_foundConflict = getelementptr inbounds %"class.cvc5::internal::theory::arith::linear::UpdateInfo", ptr %this1, i32 0, i32 3
  %0 = load i8, ptr %d_foundConflict, align 8
  %tobool = trunc i8 %0 to i1
  ret i1 %tobool
}

; Function Attrs: mustprogress nounwind uwtable
define linkonce_odr hidden noundef i32 @_ZNK4cvc58internal6theory5arith6linear10UpdateInfo10getWitnessEb(ptr noundef nonnull align 8 dereferenceable(204) %this, i1 noundef zeroext %useBlands) #6 comdat align 2 {
entry:
  %retval = alloca i32, align 4
  %this.addr = alloca ptr, align 8
  %useBlands.addr = alloca i8, align 1
  store ptr %this, ptr %this.addr, align 8
  %frombool = zext i1 %useBlands to i8
  store i8 %frombool, ptr %useBlands.addr, align 1
  %this1 = load ptr, ptr %this.addr, align 8
  %d_witness = getelementptr inbounds %"class.cvc5::internal::theory::arith::linear::UpdateInfo", ptr %this1, i32 0, i32 11
  %0 = load i32, ptr %d_witness, align 8
  %cmp = icmp eq i32 %0, 4
  br i1 %cmp, label %if.then, label %if.else3

if.then:                                          ; preds = %entry
  %1 = load i8, ptr %useBlands.addr, align 1
  %tobool = trunc i8 %1 to i1
  br i1 %tobool, label %if.then2, label %if.else

if.then2:                                         ; preds = %if.then
  store i32 5, ptr %retval, align 4
  br label %return

if.else:                                          ; preds = %if.then
  store i32 6, ptr %retval, align 4
  br label %return

if.else3:                                         ; preds = %entry
  %d_witness4 = getelementptr inbounds %"class.cvc5::internal::theory::arith::linear::UpdateInfo", ptr %this1, i32 0, i32 11
  %2 = load i32, ptr %d_witness4, align 8
  store i32 %2, ptr %retval, align 4
  br label %return

return:                                           ; preds = %if.else3, %if.else, %if.then2
  %3 = load i32, ptr %retval, align 4
  ret i32 %3
}

; Function Attrs: mustprogress uwtable
define hidden noundef zeroext i1 @_ZN4cvc58internal6theory5arith6linear17debugCheckWitnessERKNS3_10UpdateInfoENS3_18WitnessImprovementEb(ptr noundef nonnull align 8 dereferenceable(204) %inf, i32 noundef %w, i1 noundef zeroext %useBlands) #4 {
entry:
  %retval = alloca i1, align 1
  %inf.addr = alloca ptr, align 8
  %w.addr = alloca i32, align 4
  %useBlands.addr = alloca i8, align 1
  store ptr %inf, ptr %inf.addr, align 8
  store i32 %w, ptr %w.addr, align 4
  %frombool = zext i1 %useBlands to i8
  store i8 %frombool, ptr %useBlands.addr, align 1
  %0 = load ptr, ptr %inf.addr, align 8
  %1 = load i8, ptr %useBlands.addr, align 1
  %tobool = trunc i8 %1 to i1
  %call = call noundef i32 @_ZNK4cvc58internal6theory5arith6linear10UpdateInfo10getWitnessEb(ptr noundef nonnull align 8 dereferenceable(204) %0, i1 noundef zeroext %tobool)
  %2 = load i32, ptr %w.addr, align 4
  %cmp = icmp eq i32 %call, %2
  br i1 %cmp, label %if.then, label %if.end

if.then:                                          ; preds = %entry
  %3 = load i32, ptr %w.addr, align 4
  switch i32 %3, label %sw.epilog [
    i32 0, label %sw.bb
    i32 1, label %sw.bb2
    i32 2, label %sw.bb5
    i32 3, label %sw.bb8
    i32 4, label %sw.bb9
    i32 5, label %sw.bb10
    i32 6, label %sw.bb12
    i32 7, label %sw.bb14
  ]

sw.bb:                                            ; preds = %if.then
  %4 = load ptr, ptr %inf.addr, align 8
  %call1 = call noundef zeroext i1 @_ZNK4cvc58internal6theory5arith6linear10UpdateInfo13foundConflictEv(ptr noundef nonnull align 8 dereferenceable(204) %4)
  store i1 %call1, ptr %retval, align 1
  br label %return

sw.bb2:                                           ; preds = %if.then
  %5 = load ptr, ptr %inf.addr, align 8
  %call3 = call noundef i32 @_ZNK4cvc58internal6theory5arith6linear10UpdateInfo12errorsChangeEv(ptr noundef nonnull align 8 dereferenceable(204) %5)
  %cmp4 = icmp slt i32 %call3, 0
  store i1 %cmp4, ptr %retval, align 1
  br label %return

sw.bb5:                                           ; preds = %if.then
  %6 = load ptr, ptr %inf.addr, align 8
  %call6 = call noundef i32 @_ZNK4cvc58internal6theory5arith6linear10UpdateInfo14focusDirectionEv(ptr noundef nonnull align 8 dereferenceable(204) %6)
  %cmp7 = icmp sgt i32 %call6, 0
  store i1 %cmp7, ptr %retval, align 1
  br label %return

sw.bb8:                                           ; preds = %if.then
  store i1 false, ptr %retval, align 1
  br label %return

sw.bb9:                                           ; preds = %if.then
  store i1 false, ptr %retval, align 1
  br label %return

sw.bb10:                                          ; preds = %if.then
  %7 = load i8, ptr %useBlands.addr, align 1
  %tobool11 = trunc i8 %7 to i1
  store i1 %tobool11, ptr %retval, align 1
  br label %return

sw.bb12:                                          ; preds = %if.then
  %8 = load i8, ptr %useBlands.addr, align 1
  %tobool13 = trunc i8 %8 to i1
  %lnot = xor i1 %tobool13, true
  store i1 %lnot, ptr %retval, align 1
  br label %return

sw.bb14:                                          ; preds = %if.then
  store i1 false, ptr %retval, align 1
  br label %return

sw.epilog:                                        ; preds = %if.then
  br label %if.end

if.end:                                           ; preds = %sw.epilog, %entry
  store i1 false, ptr %retval, align 1
  br label %return

return:                                           ; preds = %if.end, %sw.bb14, %sw.bb12, %sw.bb10, %sw.bb9, %sw.bb8, %sw.bb5, %sw.bb2, %sw.bb
  %9 = load i1, ptr %retval, align 1
  ret i1 %9
}